; Function Attrs: mustprogress uwtable
define void @_ZN7rocksdb16BlockCacheTracer8EndTraceEv(ptr noundef nonnull align 8 dereferenceable(88) %0) local_unnamed_addr #5 align 2 personality ptr @__gxx_personality_v0 {
  %2 = getelementptr inbounds nuw i8, ptr %0, i64 8
  tail call void @_ZN7rocksdb17InstrumentedMutex4LockEv(ptr noundef nonnull align 8 dereferenceable(60) %2)
  %3 = getelementptr inbounds nuw i8, ptr %0, i64 72
  %4 = load atomic i64, ptr %3 seq_cst, align 8
  %.not = icmp eq i64 %4, 0
  br i1 %.not, label %13, label %5

5:                                                ; preds = %1
  %6 = load atomic i64, ptr %3 seq_cst, align 8
  %7 = icmp eq i64 %6, 0
  br i1 %7, label %12, label %8

8:                                                ; preds = %5
  %.0.i.i1 = inttoptr i64 %6 to ptr
  %9 = load ptr, ptr %.0.i.i1, align 8, !tbaa !39
  %10 = getelementptr inbounds nuw i8, ptr %9, i64 8
  %11 = load ptr, ptr %10, align 8
  tail call void %11(ptr noundef nonnull align 8 dereferenceable(8) %.0.i.i1) #28
  br label %12

12:                                               ; preds = %8, %5
  store atomic i64 0, ptr %3 seq_cst, align 8
  br label %13

13:                                               ; preds = %1, %12
  invoke void @_ZN7rocksdb4port5Mutex6UnlockEv(ptr noundef nonnull align 8 dereferenceable(60) %2)
          to label %_ZN7rocksdb21InstrumentedMutexLockD2Ev.exit unwind label %14

14:                                               ; preds = %13
  %15 = landingpad { ptr, i32 }
          catch ptr null
  %16 = extractvalue { ptr, i32 } %15, 0
  tail call void @__clang_call_terminate(ptr %16) #30
  unreachable

_ZN7rocksdb21InstrumentedMutexLockD2Ev.exit:      ; preds = %13
  ret void
}